; ModuleID = '40/2884.c'
source_filename = "40/2884.c"
target datalayout = "e-m:e-p270:32:32-p271:32:32-p272:64:64-i64:64-f80:128-n8:16:32:64-S128"
target triple = "x86_64-pc-linux-gnu"

@.str = private unnamed_addr constant [4 x i8] c"%lf\00", align 1
@.str.1 = private unnamed_addr constant [15 x i8] c"Invalid input\0A\00", align 1
@.str.2 = private unnamed_addr constant [7 x i8] c"%.4lf\0A\00", align 1

; Function Attrs: noinline nounwind uwtable
define dso_local double @area(double %0, double %1, double %2, double %3, double %4) #0 {
  %6 = alloca double, align 8
  %7 = alloca double, align 8
  %8 = alloca double, align 8
  %9 = alloca double, align 8
  %10 = alloca double, align 8
  %11 = alloca double, align 8
  %12 = alloca double, align 8
  %13 = alloca double, align 8
  %14 = alloca double, align 8
  %15 = alloca double, align 8
  store double %0, double* %7, align 8
  store double %1, double* %8, align 8
  store double %2, double* %9, align 8
  store double %3, double* %10, align 8
  store double %4, double* %11, align 8
  %16 = load double, double* %7, align 8
  %17 = load double, double* %8, align 8
  %18 = fadd double %16, %17
  %19 = load double, double* %9, align 8
  %20 = fadd double %18, %19
  %21 = load double, double* %10, align 8
  %22 = fadd double %20, %21
  %23 = fdiv double %22, 2.000000e+00
  store double %23, double* %12, align 8
  %24 = load double, double* %11, align 8
  %25 = fmul double %24, 1.000000e+02
  %26 = fdiv double %25, 3.600000e+02
  %27 = call double @cos(double %26) #3
  %28 = load double, double* %11, align 8
  %29 = fmul double %28, 1.000000e+02
  %30 = fdiv double %29, 3.600000e+02
  %31 = call double @cos(double %30) #3
  %32 = fmul double %27, %31
  store double %32, double* %13, align 8
  %33 = load double, double* %12, align 8
  %34 = load double, double* %7, align 8
  %35 = fsub double %33, %34
  %36 = load double, double* %12, align 8
  %37 = load double, double* %8, align 8
  %38 = fsub double %36, %37
  %39 = fmul double %35, %38
  %40 = load double, double* %12, align 8
  %41 = load double, double* %9, align 8
  %42 = fsub double %40, %41
  %43 = fmul double %39, %42
  %44 = load double, double* %12, align 8
  %45 = load double, double* %10, align 8
  %46 = fsub double %44, %45
  %47 = fmul double %43, %46
  %48 = load double, double* %7, align 8
  %49 = load double, double* %8, align 8
  %50 = fmul double %48, %49
  %51 = load double, double* %9, align 8
  %52 = fmul double %50, %51
  %53 = load double, double* %10, align 8
  %54 = fmul double %52, %53
  %55 = load double, double* %13, align 8
  %56 = fmul double %54, %55
  %57 = fsub double %47, %56
  store double %57, double* %14, align 8
  %58 = load double, double* %14, align 8
  %59 = fcmp oge double %58, 0.000000e+00
  br i1 %59, label %60, label %64

60:                                               ; preds = %5
  %61 = load double, double* %14, align 8
  %62 = call double @sqrt(double %61) #3
  store double %62, double* %15, align 8
  %63 = load double, double* %15, align 8
  store double %63, double* %6, align 8
  br label %65

64:                                               ; preds = %5
  store double -1.000000e+00, double* %6, align 8
  br label %65

65:                                               ; preds = %64, %60
  %66 = load double, double* %6, align 8
  ret double %66
}

; Function Attrs: nounwind
declare dso_local double @cos(double) #1

; Function Attrs: nounwind
declare dso_local double @sqrt(double) #1

; Function Attrs: noinline nounwind uwtable
define dso_local void @main() #0 {
  %1 = alloca double, align 8
  %2 = alloca double, align 8
  %3 = alloca double, align 8
  %4 = alloca double, align 8
  %5 = alloca double, align 8
  %6 = alloca double, align 8
  %7 = call i32 (i8*, ...) @__isoc99_scanf(i8* getelementptr inbounds ([4 x i8], [4 x i8]* @.str, i64 0, i64 0), double* %1)
  %8 = call i32 (i8*, ...) @__isoc99_scanf(i8* getelementptr inbounds ([4 x i8], [4 x i8]* @.str, i64 0, i64 0), double* %2)
  %9 = call i32 (i8*, ...) @__isoc99_scanf(i8* getelementptr inbounds ([4 x i8], [4 x i8]* @.str, i64 0, i64 0), double* %3)
  %10 = call i32 (i8*, ...) @__isoc99_scanf(i8* getelementptr inbounds ([4 x i8], [4 x i8]* @.str, i64 0, i64 0), double* %4)
  %11 = call i32 (i8*, ...) @__isoc99_scanf(i8* getelementptr inbounds ([4 x i8], [4 x i8]* @.str, i64 0, i64 0), double* %5)
  %12 = load double, double* %1, align 8
  %13 = load double, double* %2, align 8
  %14 = load double, double* %3, align 8
  %15 = load double, double* %4, align 8
  %16 = load double, double* %5, align 8
  %17 = call double @area(double %12, double %13, double %14, double %15, double %16)
  store double %17, double* %6, align 8
  %18 = load double, double* %6, align 8
  %19 = fcmp oeq double %18, -1.000000e+00
  br i1 %19, label %20, label %22

20:                                               ; preds = %0
  %21 = call i32 (i8*, ...) @printf(i8* getelementptr inbounds ([15 x i8], [15 x i8]* @.str.1, i64 0, i64 0))
  br label %25

22:                                               ; preds = %0
  %23 = load double, double* %6, align 8
  %24 = call i32 (i8*, ...) @printf(i8* getelementptr inbounds ([7 x i8], [7 x i8]* @.str.2, i64 0, i64 0), double %23)
  br label %25

25:                                               ; preds = %22, %20
  ret void
}

declare dso_local i32 @__isoc99_scanf(i8*, ...) #2

declare dso_local i32 @printf(i8*, ...) #2


!llvm.module.flags = !{!0}
!llvm.ident = !{!1}

!0 = !{i32 1, !"wchar_size", i32 4}
!1 = !{!"clang version 10.0.0-4ubuntu1 "}
